; Function Attrs: nofree nounwind uwtable
define dso_local void @geod_lineinit(ptr noundef %0, ptr noundef readonly captures(none) %1, double noundef %2, double noundef %3, double noundef %4, i32 noundef %5) local_unnamed_addr #3 {
  %7 = alloca i32, align 4
  %8 = alloca double, align 8
  %9 = alloca double, align 8
  %10 = tail call double @remainder(double noundef %4, double noundef 3.600000e+02) #13, !tbaa !16
  %11 = tail call double @llvm.fabs.f64(double %10)
  %12 = fcmp oeq double %11, 1.800000e+02
  %13 = tail call double @llvm.copysign.f64(double 1.800000e+02, double %4)
  %14 = select i1 %12, double %13, double %10
  call void @llvm.lifetime.start.p0(i64 8, ptr nonnull %8)
  %15 = tail call double @llvm.fabs.f64(double %14)
  store volatile double %15, ptr %8, align 8, !tbaa !4
  call void @llvm.lifetime.start.p0(i64 8, ptr nonnull %9)
  %.0..0..0..0..0..0.2.i = load volatile double, ptr %8, align 8, !tbaa !4
  %16 = fsub double 6.250000e-02, %.0..0..0..0..0..0.2.i
  store volatile double %16, ptr %9, align 8, !tbaa !4
  %.0..0..0..0..0..0..i = load volatile double, ptr %9, align 8, !tbaa !4
  %17 = fcmp ogt double %.0..0..0..0..0..0..i, 0.000000e+00
  br i1 %17, label %18, label %20

18:                                               ; preds = %6
  %.0..0..0..0..0..0.1.i = load volatile double, ptr %9, align 8, !tbaa !4
  %19 = fsub double 6.250000e-02, %.0..0..0..0..0..0.1.i
  br label %AngRound.exit

20:                                               ; preds = %6
  %.0..0..0..0..0..0.3.i = load volatile double, ptr %8, align 8, !tbaa !4
  br label %AngRound.exit

AngRound.exit:                                    ; preds = %18, %20
  %21 = phi double [ %19, %18 ], [ %.0..0..0..0..0..0.3.i, %20 ]
  store volatile double %21, ptr %8, align 8, !tbaa !4
  %.0..0..0..0..0..0.4.i = load volatile double, ptr %8, align 8, !tbaa !4
  %22 = tail call double @llvm.copysign.f64(double %.0..0..0..0..0..0.4.i, double %14)
  call void @llvm.lifetime.end.p0(i64 8, ptr nonnull %9)
  call void @llvm.lifetime.end.p0(i64 8, ptr nonnull %8)
  call void @llvm.lifetime.start.p0(i64 4, ptr nonnull %7) #13
  store i32 0, ptr %7, align 4, !tbaa !16
  %23 = call double @remquo(double noundef %22, double noundef 9.000000e+01, ptr noundef nonnull %7) #13
  %24 = load double, ptr @degree, align 8, !tbaa !4
  %25 = fmul double %23, %24
  %26 = tail call double @sin(double noundef %25) #13, !tbaa !16
  %27 = tail call double @cos(double noundef %25) #13, !tbaa !16
  %28 = load i32, ptr %7, align 4, !tbaa !16
  %29 = and i32 %28, 3
  switch i32 %29, label %default.unreachable [
    i32 0, label %sincosdx.exit
    i32 1, label %30
    i32 2, label %32
    i32 3, label %35
  ]

30:                                               ; preds = %AngRound.exit
  %31 = fneg double %26
  br label %sincosdx.exit

32:                                               ; preds = %AngRound.exit
  %33 = fneg double %26
  %34 = fneg double %27
  br label %sincosdx.exit

default.unreachable:                              ; preds = %AngRound.exit
  unreachable

35:                                               ; preds = %AngRound.exit
  %36 = fneg double %27
  br label %sincosdx.exit

sincosdx.exit:                                    ; preds = %AngRound.exit, %35, %32, %30
  %.0 = phi double [ %36, %35 ], [ %33, %32 ], [ %27, %30 ], [ %26, %AngRound.exit ]
  %37 = phi double [ %26, %35 ], [ %34, %32 ], [ %31, %30 ], [ %27, %AngRound.exit ]
  %38 = fadd double %37, 0.000000e+00
  %39 = fcmp oeq double %.0, 0.000000e+00
  %40 = tail call double @llvm.copysign.f64(double %.0, double %14)
  %.1 = select i1 %39, double %40, double %.0
  call void @llvm.lifetime.end.p0(i64 4, ptr nonnull %7) #13
  tail call fastcc void @geod_lineinit_int(ptr noundef %0, ptr noundef %1, double noundef %2, double noundef %3, double noundef %14, double noundef %.1, double noundef %38, i32 noundef %5)
  ret void
}